target datalayout = "e-m:e-p270:32:32-p271:32:32-p272:64:64-i64:64-i128:128-f80:128-n8:16:32:64-S128"
target triple = "x86_64-pc-linux-gnu"

%struct.hb_draw_funcs_t = type { %struct.hb_object_header_t, %struct.anon, ptr, ptr }
%struct.hb_object_header_t = type { %struct.hb_reference_count_t, %struct.hb_atomic_int_t, %struct.hb_atomic_ptr_t }
%struct.hb_reference_count_t = type { %struct.hb_atomic_int_t }
%struct.hb_atomic_int_t = type { i32 }
%struct.hb_atomic_ptr_t = type { ptr }
%struct.anon = type { ptr, ptr, ptr, ptr, ptr }
%struct.anon.1 = type { ptr, ptr, ptr, ptr, ptr }
%struct.hb_draw_state_t = type { i32, float, float, float, float, %union._hb_var_num_t, %union._hb_var_num_t, %union._hb_var_num_t, %union._hb_var_num_t, %union._hb_var_num_t, %union._hb_var_num_t, %union._hb_var_num_t }
%union._hb_var_num_t = type { float }

; Function Attrs: mustprogress uwtable
define linkonce_odr hidden void @_ZN15hb_draw_funcs_t15emit_close_pathEPvR15hb_draw_state_t(ptr noundef nonnull align 8 dereferenceable(72) %0, ptr noundef %1, ptr noundef nonnull align 4 dereferenceable(48) %2) #0 comdat align 2 {
  %4 = alloca ptr, align 8
  %5 = alloca ptr, align 8
  %6 = alloca ptr, align 8
  store ptr %0, ptr %4, align 8
  store ptr %1, ptr %5, align 8
  store ptr %2, ptr %6, align 8
  %7 = load ptr, ptr %4, align 8
  %8 = getelementptr inbounds %struct.hb_draw_funcs_t, ptr %7, i32 0, i32 1
  %9 = getelementptr inbounds %struct.anon, ptr %8, i32 0, i32 4
  %10 = load ptr, ptr %9, align 8
  %11 = load ptr, ptr %5, align 8
  %12 = load ptr, ptr %6, align 8
  %13 = getelementptr inbounds %struct.hb_draw_funcs_t, ptr %7, i32 0, i32 2
  %14 = load ptr, ptr %13, align 8
  %15 = icmp ne ptr %14, null
  br i1 %15, label %17, label %16

16:                                               ; preds = %3
  br label %22

17:                                               ; preds = %3
  %18 = getelementptr inbounds %struct.hb_draw_funcs_t, ptr %7, i32 0, i32 2
  %19 = load ptr, ptr %18, align 8
  %20 = getelementptr inbounds %struct.anon.1, ptr %19, i32 0, i32 4
  %21 = load ptr, ptr %20, align 8
  br label %22

22:                                               ; preds = %17, %16
  %23 = phi ptr [ null, %16 ], [ %21, %17 ]
  call void %10(ptr noundef %7, ptr noundef %11, ptr noundef %12, ptr noundef %23)
  ret void
}

; Function Attrs: mustprogress uwtable
define linkonce_odr hidden void @_ZN15hb_draw_funcs_t12emit_line_toEPvR15hb_draw_state_tff(ptr noundef nonnull align 8 dereferenceable(72) %0, ptr noundef %1, ptr noundef nonnull align 4 dereferenceable(48) %2, float noundef %3, float noundef %4) #0 comdat align 2 {
  %6 = alloca ptr, align 8
  %7 = alloca ptr, align 8
  %8 = alloca ptr, align 8
  %9 = alloca float, align 4
  %10 = alloca float, align 4
  store ptr %0, ptr %6, align 8
  store ptr %1, ptr %7, align 8
  store ptr %2, ptr %8, align 8
  store float %3, ptr %9, align 4
  store float %4, ptr %10, align 4
  %11 = load ptr, ptr %6, align 8
  %12 = getelementptr inbounds %struct.hb_draw_funcs_t, ptr %11, i32 0, i32 1
  %13 = getelementptr inbounds %struct.anon, ptr %12, i32 0, i32 1
  %14 = load ptr, ptr %13, align 8
  %15 = load ptr, ptr %7, align 8
  %16 = load ptr, ptr %8, align 8
  %17 = load float, ptr %9, align 4
  %18 = load float, ptr %10, align 4
  %19 = getelementptr inbounds %struct.hb_draw_funcs_t, ptr %11, i32 0, i32 2
  %20 = load ptr, ptr %19, align 8
  %21 = icmp ne ptr %20, null
  br i1 %21, label %23, label %22

22:                                               ; preds = %5
  br label %28

23:                                               ; preds = %5
  %24 = getelementptr inbounds %struct.hb_draw_funcs_t, ptr %11, i32 0, i32 2
  %25 = load ptr, ptr %24, align 8
  %26 = getelementptr inbounds %struct.anon.1, ptr %25, i32 0, i32 1
  %27 = load ptr, ptr %26, align 8
  br label %28

28:                                               ; preds = %23, %22
  %29 = phi ptr [ null, %22 ], [ %27, %23 ]
  call void %14(ptr noundef %11, ptr noundef %15, ptr noundef %16, float noundef %17, float noundef %18, ptr noundef %29)
  ret void
}

; Function Attrs: mustprogress uwtable
define hidden void @hb_draw_move_to(ptr noundef %0, ptr noundef %1, ptr noundef %2, float noundef %3, float noundef %4) #0 {
  %6 = alloca ptr, align 8
  %7 = alloca ptr, align 8
  %8 = alloca ptr, align 8
  %9 = alloca ptr, align 8
  %10 = alloca ptr, align 8
  %11 = alloca ptr, align 8
  %12 = alloca float, align 4
  %13 = alloca float, align 4
  %14 = alloca ptr, align 8
  %15 = alloca ptr, align 8
  %16 = alloca ptr, align 8
  %17 = alloca float, align 4
  %18 = alloca float, align 4
  store ptr %0, ptr %14, align 8
  store ptr %1, ptr %15, align 8
  store ptr %2, ptr %16, align 8
  store float %3, ptr %17, align 4
  store float %4, ptr %18, align 4
  %19 = load ptr, ptr %14, align 8
  %20 = load ptr, ptr %15, align 8
  %21 = load ptr, ptr %16, align 8
  %22 = load float, ptr %17, align 4
  %23 = load float, ptr %18, align 4
  store ptr %19, ptr %9, align 8
  store ptr %20, ptr %10, align 8
  store ptr %21, ptr %11, align 8
  store float %22, ptr %12, align 4
  store float %23, ptr %13, align 4
  %24 = load ptr, ptr %9, align 8
  %25 = load ptr, ptr %11, align 8
  %26 = load i32, ptr %25, align 4
  %27 = icmp ne i32 %26, 0
  br i1 %27, label %28, label %73

28:                                               ; preds = %5
  %29 = load ptr, ptr %10, align 8
  %30 = load ptr, ptr %11, align 8
  store ptr %24, ptr %6, align 8
  store ptr %29, ptr %7, align 8
  store ptr %30, ptr %8, align 8
  %31 = load ptr, ptr %6, align 8
  %32 = load ptr, ptr %8, align 8
  %33 = load i32, ptr %32, align 4
  %34 = icmp ne i32 %33, 0
  br i1 %34, label %35, label %63

35:                                               ; preds = %28
  %36 = load ptr, ptr %8, align 8
  %37 = getelementptr inbounds %struct.hb_draw_state_t, ptr %36, i32 0, i32 1
  %38 = load float, ptr %37, align 4
  %39 = load ptr, ptr %8, align 8
  %40 = getelementptr inbounds %struct.hb_draw_state_t, ptr %39, i32 0, i32 3
  %41 = load float, ptr %40, align 4
  %42 = fcmp une float %38, %41
  br i1 %42, label %51, label %43

43:                                               ; preds = %35
  %44 = load ptr, ptr %8, align 8
  %45 = getelementptr inbounds %struct.hb_draw_state_t, ptr %44, i32 0, i32 2
  %46 = load float, ptr %45, align 4
  %47 = load ptr, ptr %8, align 8
  %48 = getelementptr inbounds %struct.hb_draw_state_t, ptr %47, i32 0, i32 4
  %49 = load float, ptr %48, align 4
  %50 = fcmp une float %46, %49
  br i1 %50, label %51, label %60

51:                                               ; preds = %43, %35
  %52 = load ptr, ptr %7, align 8
  %53 = load ptr, ptr %8, align 8
  %54 = load ptr, ptr %8, align 8
  %55 = getelementptr inbounds %struct.hb_draw_state_t, ptr %54, i32 0, i32 1
  %56 = load float, ptr %55, align 4
  %57 = load ptr, ptr %8, align 8
  %58 = getelementptr inbounds %struct.hb_draw_state_t, ptr %57, i32 0, i32 2
  %59 = load float, ptr %58, align 4
  call void @_ZN15hb_draw_funcs_t12emit_line_toEPvR15hb_draw_state_tff(ptr noundef nonnull align 8 dereferenceable(72) %31, ptr noundef %52, ptr noundef nonnull align 4 dereferenceable(48) %53, float noundef %56, float noundef %59)
  br label %60

60:                                               ; preds = %51, %43
  %61 = load ptr, ptr %7, align 8
  %62 = load ptr, ptr %8, align 8
  call void @_ZN15hb_draw_funcs_t15emit_close_pathEPvR15hb_draw_state_t(ptr noundef nonnull align 8 dereferenceable(72) %31, ptr noundef %61, ptr noundef nonnull align 4 dereferenceable(48) %62)
  br label %63

63:                                               ; preds = %60, %28
  %64 = load ptr, ptr %8, align 8
  store i32 0, ptr %64, align 4
  %65 = load ptr, ptr %8, align 8
  %66 = getelementptr inbounds %struct.hb_draw_state_t, ptr %65, i32 0, i32 4
  store float 0.000000e+00, ptr %66, align 4
  %67 = load ptr, ptr %8, align 8
  %68 = getelementptr inbounds %struct.hb_draw_state_t, ptr %67, i32 0, i32 2
  store float 0.000000e+00, ptr %68, align 4
  %69 = load ptr, ptr %8, align 8
  %70 = getelementptr inbounds %struct.hb_draw_state_t, ptr %69, i32 0, i32 3
  store float 0.000000e+00, ptr %70, align 4
  %71 = load ptr, ptr %8, align 8
  %72 = getelementptr inbounds %struct.hb_draw_state_t, ptr %71, i32 0, i32 1
  store float 0.000000e+00, ptr %72, align 4
  br label %73

73:                                               ; preds = %63, %5
  %74 = load float, ptr %12, align 4
  %75 = load ptr, ptr %11, align 8
  %76 = getelementptr inbounds %struct.hb_draw_state_t, ptr %75, i32 0, i32 3
  store float %74, ptr %76, align 4
  %77 = load float, ptr %13, align 4
  %78 = load ptr, ptr %11, align 8
  %79 = getelementptr inbounds %struct.hb_draw_state_t, ptr %78, i32 0, i32 4
  store float %77, ptr %79, align 4
  ret void
}