; Function Attrs: mustprogress uwtable
define hidden void @hb_draw_move_to(ptr noundef %0, ptr noundef %1, ptr noundef %2, float noundef %3, float noundef %4) local_unnamed_addr #0 {
  %6 = load i32, ptr %2, align 4
  %.not = icmp eq i32 %6, 0
  br i1 %.not, label %34, label %7

7:                                                ; preds = %5
  %8 = getelementptr inbounds i8, ptr %2, i64 4
  %9 = load float, ptr %8, align 4
  %10 = getelementptr inbounds i8, ptr %2, i64 12
  %11 = load float, ptr %10, align 4
  %12 = fcmp une float %9, %11
  %.phi.trans.insert = getelementptr inbounds i8, ptr %2, i64 8
  %.pre = load float, ptr %.phi.trans.insert, align 4
  br i1 %12, label %._crit_edge, label %13

13:                                               ; preds = %7
  %14 = getelementptr inbounds i8, ptr %2, i64 16
  %15 = load float, ptr %14, align 4
  %16 = fcmp une float %.pre, %15
  br i1 %16, label %._crit_edge, label %25

._crit_edge:                                      ; preds = %7, %13
  %17 = getelementptr inbounds i8, ptr %0, i64 24
  %18 = load ptr, ptr %17, align 8
  %19 = getelementptr inbounds i8, ptr %0, i64 56
  %20 = load ptr, ptr %19, align 8
  %.not.i = icmp eq ptr %20, null
  br i1 %.not.i, label %_ZN15hb_draw_funcs_t12emit_line_toEPvR15hb_draw_state_tff.exit, label %21

21:                                               ; preds = %._crit_edge
  %22 = getelementptr inbounds i8, ptr %20, i64 8
  %23 = load ptr, ptr %22, align 8
  br label %_ZN15hb_draw_funcs_t12emit_line_toEPvR15hb_draw_state_tff.exit

_ZN15hb_draw_funcs_t12emit_line_toEPvR15hb_draw_state_tff.exit: ; preds = %._crit_edge, %21
  %24 = phi ptr [ %23, %21 ], [ null, %._crit_edge ]
  tail call void %18(ptr noundef nonnull %0, ptr noundef %1, ptr noundef nonnull %2, float noundef %9, float noundef %.pre, ptr noundef %24)
  br label %25

25:                                               ; preds = %_ZN15hb_draw_funcs_t12emit_line_toEPvR15hb_draw_state_tff.exit, %13
  %26 = getelementptr inbounds i8, ptr %0, i64 48
  %27 = load ptr, ptr %26, align 8
  %28 = getelementptr inbounds i8, ptr %0, i64 56
  %29 = load ptr, ptr %28, align 8
  %.not.i30 = icmp eq ptr %29, null
  br i1 %.not.i30, label %_ZN15hb_draw_funcs_t15emit_close_pathEPvR15hb_draw_state_t.exit, label %30

30:                                               ; preds = %25
  %31 = getelementptr inbounds i8, ptr %29, i64 32
  %32 = load ptr, ptr %31, align 8
  br label %_ZN15hb_draw_funcs_t15emit_close_pathEPvR15hb_draw_state_t.exit

_ZN15hb_draw_funcs_t15emit_close_pathEPvR15hb_draw_state_t.exit: ; preds = %25, %30
  %33 = phi ptr [ %32, %30 ], [ null, %25 ]
  tail call void %27(ptr noundef nonnull %0, ptr noundef %1, ptr noundef nonnull %2, ptr noundef %33)
  tail call void @llvm.memset.p0.i64(ptr noundef nonnull align 4 dereferenceable(12) %2, i8 0, i64 12, i1 false)
  br label %34

34:                                               ; preds = %_ZN15hb_draw_funcs_t15emit_close_pathEPvR15hb_draw_state_t.exit, %5
  %35 = getelementptr inbounds i8, ptr %2, i64 12
  store float %3, ptr %35, align 4
  %36 = getelementptr inbounds i8, ptr %2, i64 16
  store float %4, ptr %36, align 4
  ret void
}